; ModuleID = '27/1289.c'
source_filename = "27/1289.c"
target datalayout = "e-m:e-p270:32:32-p271:32:32-p272:64:64-i64:64-f80:128-n8:16:32:64-S128"
target triple = "x86_64-pc-linux-gnu"

@.str = private unnamed_addr constant [3 x i8] c"%d\00", align 1
@.str.1 = private unnamed_addr constant [10 x i8] c"%lf%lf%lf\00", align 1
@.str.2 = private unnamed_addr constant [19 x i8] c"\0Ax1=%.5lf;x2=%.5lf\00", align 1
@.str.3 = private unnamed_addr constant [13 x i8] c"\0Ax1=x2=%.5lf\00", align 1
@.str.4 = private unnamed_addr constant [33 x i8] c"\0Ax1=%.5lf+%.5lfi;x2=%.5lf-%.5lfi\00", align 1

; Function Attrs: noinline nounwind uwtable
define dso_local i32 @main(i32 %0, i8** %1) #0 {
  %3 = alloca i32, align 4
  %4 = alloca i32, align 4
  %5 = alloca i8**, align 8
  %6 = alloca i32, align 4
  %7 = alloca i32, align 4
  %8 = alloca double, align 8
  %9 = alloca double, align 8
  %10 = alloca double, align 8
  %11 = alloca double, align 8
  %12 = alloca double, align 8
  %13 = alloca double, align 8
  %14 = alloca double, align 8
  %15 = alloca double, align 8
  store i32 0, i32* %3, align 4
  store i32 %0, i32* %4, align 4
  store i8** %1, i8*** %5, align 8
  %16 = call i32 (i8*, ...) @__isoc99_scanf(i8* getelementptr inbounds ([3 x i8], [3 x i8]* @.str, i64 0, i64 0), i32* %6)
  store i32 0, i32* %7, align 4
  br label %17

17:                                               ; preds = %105, %2
  %18 = load i32, i32* %7, align 4
  %19 = load i32, i32* %6, align 4
  %20 = icmp slt i32 %18, %19
  br i1 %20, label %21, label %108

21:                                               ; preds = %17
  %22 = call i32 (i8*, ...) @__isoc99_scanf(i8* getelementptr inbounds ([10 x i8], [10 x i8]* @.str.1, i64 0, i64 0), double* %8, double* %9, double* %10)
  %23 = load double, double* %9, align 8
  %24 = load double, double* %9, align 8
  %25 = fmul double %23, %24
  %26 = load double, double* %8, align 8
  %27 = fmul double 4.000000e+00, %26
  %28 = load double, double* %10, align 8
  %29 = fmul double %27, %28
  %30 = fsub double %25, %29
  store double %30, double* %13, align 8
  %31 = load double, double* %13, align 8
  %32 = fcmp ogt double %31, 0.000000e+00
  br i1 %32, label %33, label %67

33:                                               ; preds = %21
  %34 = load double, double* %9, align 8
  %35 = fneg double %34
  %36 = load double, double* %9, align 8
  %37 = load double, double* %9, align 8
  %38 = fmul double %36, %37
  %39 = load double, double* %8, align 8
  %40 = fmul double 4.000000e+00, %39
  %41 = load double, double* %10, align 8
  %42 = fmul double %40, %41
  %43 = fsub double %38, %42
  %44 = call double @sqrt(double %43) #3
  %45 = fadd double %35, %44
  %46 = load double, double* %8, align 8
  %47 = fmul double 2.000000e+00, %46
  %48 = fdiv double %45, %47
  store double %48, double* %11, align 8
  %49 = load double, double* %9, align 8
  %50 = fneg double %49
  %51 = load double, double* %9, align 8
  %52 = load double, double* %9, align 8
  %53 = fmul double %51, %52
  %54 = load double, double* %8, align 8
  %55 = fmul double 4.000000e+00, %54
  %56 = load double, double* %10, align 8
  %57 = fmul double %55, %56
  %58 = fsub double %53, %57
  %59 = call double @sqrt(double %58) #3
  %60 = fsub double %50, %59
  %61 = load double, double* %8, align 8
  %62 = fmul double 2.000000e+00, %61
  %63 = fdiv double %60, %62
  store double %63, double* %12, align 8
  %64 = load double, double* %11, align 8
  %65 = load double, double* %12, align 8
  %66 = call i32 (i8*, ...) @printf(i8* getelementptr inbounds ([19 x i8], [19 x i8]* @.str.2, i64 0, i64 0), double %64, double %65)
  br label %104

67:                                               ; preds = %21
  %68 = load double, double* %13, align 8
  %69 = fcmp oeq double %68, 0.000000e+00
  br i1 %69, label %70, label %79

70:                                               ; preds = %67
  %71 = load double, double* %9, align 8
  %72 = load double, double* %8, align 8
  %73 = fmul double 2.000000e+00, %72
  %74 = fdiv double %71, %73
  %75 = fsub double 0.000000e+00, %74
  store double %75, double* %11, align 8
  %76 = load double, double* %11, align 8
  store double %76, double* %12, align 8
  %77 = load double, double* %11, align 8
  %78 = call i32 (i8*, ...) @printf(i8* getelementptr inbounds ([13 x i8], [13 x i8]* @.str.3, i64 0, i64 0), double %77)
  br label %103

79:                                               ; preds = %67
  %80 = load double, double* %9, align 8
  %81 = fneg double %80
  %82 = load double, double* %9, align 8
  %83 = fmul double %81, %82
  %84 = load double, double* %8, align 8
  %85 = fmul double 4.000000e+00, %84
  %86 = load double, double* %10, align 8
  %87 = fmul double %85, %86
  %88 = fadd double %83, %87
  %89 = call double @sqrt(double %88) #3
  %90 = load double, double* %8, align 8
  %91 = fmul double 2.000000e+00, %90
  %92 = fdiv double %89, %91
  store double %92, double* %14, align 8
  %93 = load double, double* %9, align 8
  %94 = load double, double* %8, align 8
  %95 = fmul double %94, 2.000000e+00
  %96 = fdiv double %93, %95
  %97 = fsub double 0.000000e+00, %96
  store double %97, double* %15, align 8
  %98 = load double, double* %15, align 8
  %99 = load double, double* %14, align 8
  %100 = load double, double* %15, align 8
  %101 = load double, double* %14, align 8
  %102 = call i32 (i8*, ...) @printf(i8* getelementptr inbounds ([33 x i8], [33 x i8]* @.str.4, i64 0, i64 0), double %98, double %99, double %100, double %101)
  br label %103

103:                                              ; preds = %79, %70
  br label %104

104:                                              ; preds = %103, %33
  br label %105

105:                                              ; preds = %104
  %106 = load i32, i32* %7, align 4
  %107 = add nsw i32 %106, 1
  store i32 %107, i32* %7, align 4
  br label %17

108:                                              ; preds = %17
  ret i32 0
}

declare dso_local i32 @__isoc99_scanf(i8*, ...) #1

; Function Attrs: nounwind
declare dso_local double @sqrt(double) #2

declare dso_local i32 @printf(i8*, ...) #1


!llvm.module.flags = !{!0}
!llvm.ident = !{!1}

!0 = !{i32 1, !"wchar_size", i32 4}
!1 = !{!"clang version 10.0.0-4ubuntu1 "}
